; Function Attrs: mustprogress nofree norecurse nounwind willreturn memory(argmem: readwrite) uwtable
define hidden void @hb_font_set_ptem(ptr nocapture noundef %0, float noundef %1) local_unnamed_addr #6 {
  %3 = getelementptr inbounds i8, ptr %0, i64 4
  %4 = load atomic i32, ptr %3 monotonic, align 4
  %.not.i = icmp eq i32 %4, 0
  br i1 %.not.i, label %13, label %5

5:                                                ; preds = %2
  %6 = getelementptr inbounds i8, ptr %0, i64 112
  %7 = load float, ptr %6, align 8
  %8 = fcmp oeq float %7, %1
  br i1 %8, label %13, label %9

9:                                                ; preds = %5
  %10 = getelementptr inbounds i8, ptr %0, i64 16
  %11 = load i32, ptr %10, align 8
  %12 = add i32 %11, 1
  store i32 %12, ptr %10, align 8
  store float %1, ptr %6, align 8
  br label %13

13:                                               ; preds = %5, %2, %9
  ret void
}